Certificate:
    Data:
        Version: 3 (0x2)
        Serial Number:
            4c:b3:00:33:29:9f:be:0a:73:f0:c5:a1:46:7e:92:5b:25:e8:48:7f
        Signature Algorithm: sha256WithRSAEncryption
        Issuer: C=FR, ST=France, L=Bourges, O=INSACVL, OU=4AS, CN=4AS ROOT CA/emailAddress=arnaud.fevrier@insa-cvl.fr
        Validity
            Not Before: Oct 28 13:41:51 2021 GMT
            Not After : Oct 28 13:41:51 2023 GMT
        Subject: C=FR, ST=France, O=INSACVL, OU=4AS, CN=4AS Vault Intermediate
        Subject Public Key Info:
            Public Key Algorithm: rsaEncryption
                RSA Public-Key: (2048 bit)
                Modulus:
                    00:ad:49:58:0f:76:34:63:2e:56:11:a9:b4:9b:21:
                    ff:31:95:d7:7d:e8:b2:6d:e1:ab:da:09:f4:cb:c0:
                    eb:74:a3:75:42:34:ea:c5:e2:9c:65:75:15:a0:b2:
                    7b:bf:52:46:21:f2:92:61:4b:8d:07:00:fc:f3:4c:
                    13:4d:49:9e:d8:ac:5a:31:63:50:94:69:e7:81:c3:
                    0b:b4:fe:bd:8c:c9:a2:11:da:24:2e:f2:89:a7:98:
                    16:3b:0f:cd:f2:0a:b9:7b:7d:a5:45:24:a4:10:98:
                    42:41:84:ee:84:37:3d:28:1f:c5:b4:5b:72:a3:f3:
                    7d:d9:8b:56:ca:d4:0b:ef:86:35:aa:58:e0:79:b5:
                    31:92:f4:a9:32:c9:88:ce:3d:87:10:31:14:33:18:
                    85:24:7b:ea:74:1b:b1:c0:5b:8d:6b:e9:ef:72:07:
                    c2:46:fc:5f:bd:55:c9:70:9c:cc:24:49:e3:bf:cf:
                    b1:bf:e3:43:31:e0:d0:ca:92:e3:7a:31:6f:48:37:
                    11:a5:5a:8d:85:75:4c:4e:8b:4b:dd:51:a5:7d:00:
                    21:bb:f3:2f:1d:09:d1:7c:db:60:11:f2:f6:15:22:
                    ab:13:9c:cb:99:29:3c:ba:0a:89:fc:8c:27:08:18:
                    2a:33:20:2a:bd:74:3a:76:18:e9:a3:09:02:36:27:
                    40:75
                Exponent: 65537 (0x10001)
        X509v3 extensions:
            X509v3 Subject Key Identifier: 
                8E:E2:B1:78:A0:75:A9:11:60:60:8A:48:83:AF:D9:90:5F:BA:64:E7
            X509v3 Authority Key Identifier: 
                keyid:8A:21:37:EA:66:21:55:B6:D8:57:3E:C7:74:6A:00:5A:EE:3E:2D:51

            X509v3 Basic Constraints: critical
                CA:TRUE, pathlen:0
    Signature Algorithm: sha256WithRSAEncryption
         3e:32:42:46:be:6b:f0:52:f0:44:69:11:b3:ab:f7:95:bf:7b:
         bd:32:ff:6b:75:bf:21:c2:64:d4:14:60:fa:29:55:6d:95:18:
         f2:c5:08:34:86:b4:fb:2e:a9:da:8f:3a:2f:b1:41:a1:25:0c:
         14:5e:37:1f:4d:53:6b:f8:c7:5f:d7:21:a3:6f:73:56:a8:c0:
         63:71:f4:fc:64:5a:36:09:eb:66:d7:8b:98:46:cd:20:96:fd:
         ba:ca:bd:9a:af:e0:00:00:f9:8b:f0:f2:71:b6:7d:64:fc:32:
         39:95:3b:8d:2c:e7:30:12:51:e8:10:68:e2:a9:99:6b:40:7e:
         1c:ab:4c:57:0b:a5:e3:c8:9e:b8:5b:7f:f5:af:63:14:a6:eb:
         a0:51:7b:fe:fe:24:3d:ab:0b:84:40:fa:6d:ec:8e:f7:6e:40:
         cf:59:c4:d1:27:69:78:4d:09:92:fa:4f:e4:d0:c3:69:2e:10:
         79:26:87:ee:13:6b:ab:6e:27:bf:9c:d4:ca:66:36:41:8a:67:
         65:54:a0:6b:a6:5c:bd:09:87:c2:a7:d6:98:68:73:61:b3:e9:
         58:ae:ff:f1:b8:80:4b:28:78:0a:90:07:4e:88:5a:a8:61:e5:
         23:93:0a:97:82:99:3b:f3:10:94:a0:3e:ee:e7:3e:96:de:90:
         8b:70:6e:79
-----BEGIN CERTIFICATE-----
MIID1TCCAr2gAwIBAgIUTLMAMymfvgpz8MWhRn6SWyXoSH8wDQYJKoZIhvcNAQEL
BQAwgZExCzAJBgNVBAYTAkZSMQ8wDQYDVQQIDAZGcmFuY2UxEDAOBgNVBAcMB0Jv
dXJnZXMxEDAOBgNVBAoMB0lOU0FDVkwxDDAKBgNVBAsMAzRBUzEUMBIGA1UEAwwL
NEFTIFJPT1QgQ0ExKTAnBgkqhkiG9w0BCQEWGmFybmF1ZC5mZXZyaWVyQGluc2Et
Y3ZsLmZyMB4XDTIxMTAyODEzNDE1MVoXDTIzMTAyODEzNDE1MVowXzELMAkGA1UE
BhMCRlIxDzANBgNVBAgMBkZyYW5jZTEQMA4GA1UECgwHSU5TQUNWTDEMMAoGA1UE
CwwDNEFTMR8wHQYDVQQDDBY0QVMgVmF1bHQgSW50ZXJtZWRpYXRlMIIBIjANBgkq
hkiG9w0BAQEFAAOCAQ8AMIIBCgKCAQEArUlYD3Y0Yy5WEam0myH/MZXXfeiybeGr
2gn0y8DrdKN1QjTqxeKcZXUVoLJ7v1JGIfKSYUuNBwD880wTTUme2KxaMWNQlGnn
gcMLtP69jMmiEdokLvKJp5gWOw/N8gq5e32lRSSkEJhCQYTuhDc9KB/FtFtyo/N9
2YtWytQL74Y1qljgebUxkvSpMsmIzj2HEDEUMxiFJHvqdBuxwFuNa+nvcgfCRvxf
vVXJcJzMJEnjv8+xv+NDMeDQypLjejFvSDcRpVqNhXVMTotL3VGlfQAhu/MvHQnR
fNtgEfL2FSKrE5zLmSk8ugqJ/IwnCBgqMyAqvXQ6dhjpowkCNidAdQIDAQABo1Yw
VDAdBgNVHQ4EFgQUjuKxeKB1qRFgYIpIg6/ZkF+6ZOcwHwYDVR0jBBgwFoAUiiE3
6mYhVbbYVz7HdGoAWu4+LVEwEgYDVR0TAQH/BAgwBgEB/wIBADANBgkqhkiG9w0B
AQsFAAOCAQEAPjJCRr5r8FLwRGkRs6v3lb97vTL/a3W/IcJk1BRg+ilVbZUY8sUI
NIa0+y6p2o86L7FBoSUMFF43H01Ta/jHX9cho29zVqjAY3H0/GRaNgnrZteLmEbN
IJb9usq9mq/gAAD5i/DycbZ9ZPwyOZU7jSznMBJR6BBo4qmZa0B+HKtMVwul48ie
uFt/9a9jFKbroFF7/v4kPasLhED6beyO925Az1nE0SdpeE0JkvpP5NDDaS4QeSaH
7hNrq24nv5zUymY2QYpnZVSga6ZcvQmHwqfWmGhzYbPpWK7/8biASyh4CpAHToha
qGHlI5MKl4KZO/MQlKA+7uc+lt6Qi3BueQ==
-----END CERTIFICATE-----
